; Function Attrs: nounwind sspstrong uwtable
define internal i64 @f_quo(i64 noundef %0, i64 noundef %1) #0 {
  %3 = alloca i64, align 8
  store i64 %1, ptr %3, align 8, !tbaa !11
  %4 = and i64 %0, 1
  %.not.i = icmp eq i64 %4, 0
  br i1 %.not.i, label %5, label %rb_integer_type_p.exit.thread

5:                                                ; preds = %2
  %6 = icmp eq i64 %0, 0
  %7 = and i64 %0, 6
  %8 = icmp ne i64 %7, 0
  %9 = or i1 %6, %8
  br i1 %9, label %rb_integer_type_p.exit.thread11, label %rb_integer_type_p.exit

rb_integer_type_p.exit:                           ; preds = %5
  %10 = inttoptr i64 %0 to ptr
  %11 = load i64, ptr %10, align 8, !tbaa !19
  %12 = and i64 %11, 31
  %13 = icmp eq i64 %12, 10
  br i1 %13, label %rb_integer_type_p.exit.thread, label %rb_integer_type_p.exit.thread11

rb_integer_type_p.exit.thread:                    ; preds = %2, %rb_integer_type_p.exit
  %14 = tail call i64 @rb_numeric_quo(i64 noundef %0, i64 noundef %1) #17
  br label %32

rb_integer_type_p.exit.thread11:                  ; preds = %5, %rb_integer_type_p.exit
  %15 = and i64 %0, 2
  %.not = icmp eq i64 %15, 0
  br i1 %.not, label %16, label %RB_FLOAT_TYPE_P.exit.thread

16:                                               ; preds = %rb_integer_type_p.exit.thread11
  %17 = and i64 %0, 4
  %18 = icmp ne i64 %17, 0
  %19 = or i1 %6, %18
  br i1 %19, label %rbimpl_RB_TYPE_P_fastpath.exit.thread, label %RB_FLOAT_TYPE_P.exit

RB_FLOAT_TYPE_P.exit:                             ; preds = %16
  %20 = inttoptr i64 %0 to ptr
  %21 = load i64, ptr %20, align 8, !tbaa !19
  %22 = and i64 %21, 31
  %23 = icmp eq i64 %22, 4
  br i1 %23, label %RB_FLOAT_TYPE_P.exit.thread, label %rbimpl_RB_TYPE_P_fastpath.exit

RB_FLOAT_TYPE_P.exit.thread:                      ; preds = %rb_integer_type_p.exit.thread11, %RB_FLOAT_TYPE_P.exit
  %24 = tail call i64 @rb_float_div(i64 noundef %0, i64 noundef %1) #17
  br label %32

rbimpl_RB_TYPE_P_fastpath.exit:                   ; preds = %RB_FLOAT_TYPE_P.exit
  %25 = inttoptr i64 %0 to ptr
  %26 = load i64, ptr %25, align 8, !tbaa !19
  %27 = and i64 %26, 31
  %28 = icmp eq i64 %27, 15
  br i1 %28, label %29, label %rbimpl_RB_TYPE_P_fastpath.exit.thread

29:                                               ; preds = %rbimpl_RB_TYPE_P_fastpath.exit
  %30 = tail call i64 @rb_numeric_quo(i64 noundef %0, i64 noundef %1) #17
  br label %32

rbimpl_RB_TYPE_P_fastpath.exit.thread:            ; preds = %16, %rbimpl_RB_TYPE_P_fastpath.exit
  %31 = call i64 @rb_funcallv(i64 noundef %0, i64 noundef 3617, i32 noundef 1, ptr noundef nonnull %3) #17
  br label %32

32:                                               ; preds = %rbimpl_RB_TYPE_P_fastpath.exit.thread, %29, %RB_FLOAT_TYPE_P.exit.thread, %rb_integer_type_p.exit.thread
  %.0 = phi i64 [ %14, %rb_integer_type_p.exit.thread ], [ %24, %RB_FLOAT_TYPE_P.exit.thread ], [ %30, %29 ], [ %31, %rbimpl_RB_TYPE_P_fastpath.exit.thread ]
  ret i64 %.0
}